target datalayout = "e-m:e-p270:32:32-p271:32:32-p272:64:64-i64:64-i128:128-f80:128-n8:16:32:64-S128"
target triple = "x86_64-pc-linux-gnu"

%struct.CommitTimestampShared = type { i32, %struct.CommitTimestampEntry, i8 }
%struct.CommitTimestampEntry = type { i64, i16 }
%union.LWLockPadded = type { %struct.LWLock, [112 x i8] }
%struct.LWLock = type { i16, %struct.pg_atomic_uint32, %struct.proclist_head }
%struct.pg_atomic_uint32 = type { i32 }
%struct.proclist_head = type { i32, i32 }
%struct.HeapTupleData = type { i32, %struct.ItemPointerData, i32, ptr }
%struct.ItemPointerData = type { %struct.BlockIdData, i16 }
%struct.BlockIdData = type { i16, i16 }

@commitTsShared = internal global ptr null, align 8
@MainLWLockArray = external global ptr, align 8
@.str.1 = private unnamed_addr constant [12 x i8] c"commit_ts.c\00", align 1
@.str.2 = private unnamed_addr constant [31 x i8] c"return type must be a row type\00", align 1
@__func__.pg_last_committed_xact = private unnamed_addr constant [23 x i8] c"pg_last_committed_xact\00", align 1

; Function Attrs: inlinehint nounwind uwtable
define internal i64 @Int64GetDatum(i64 noundef %0) #2 {
  %2 = alloca i64, align 8
  store i64 %0, ptr %2, align 8
  %3 = load i64, ptr %2, align 8
  ret i64 %3
}

; Function Attrs: inlinehint nounwind uwtable
define internal i64 @HeapTupleGetDatum(ptr noundef %0) #2 {
  %2 = alloca ptr, align 8
  store ptr %0, ptr %2, align 8
  %3 = load ptr, ptr %2, align 8
  %4 = getelementptr inbounds nuw %struct.HeapTupleData, ptr %3, i32 0, i32 3
  %5 = load ptr, ptr %4, align 8
  %6 = call i64 @HeapTupleHeaderGetDatum(ptr noundef %5)
  ret i64 %6
}

; Function Attrs: inlinehint nounwind uwtable
define internal i64 @ObjectIdGetDatum(i32 noundef %0) #2 {
  %2 = alloca i32, align 4
  store i32 %0, ptr %2, align 4
  %3 = load i32, ptr %2, align 4
  %4 = zext i32 %3 to i64
  ret i64 %4
}

; Function Attrs: inlinehint nounwind uwtable
define internal i64 @TimestampTzGetDatum(i64 noundef %0) #2 {
  %2 = alloca i64, align 8
  store i64 %0, ptr %2, align 8
  %3 = load i64, ptr %2, align 8
  %4 = call i64 @Int64GetDatum(i64 noundef %3)
  ret i64 %4
}

; Function Attrs: inlinehint nounwind uwtable
define internal i64 @TransactionIdGetDatum(i32 noundef %0) #2 {
  %2 = alloca i32, align 4
  store i32 %0, ptr %2, align 4
  %3 = load i32, ptr %2, align 4
  %4 = zext i32 %3 to i64
  ret i64 %4
}

; Function Attrs: nounwind uwtable
define dso_local i32 @GetLatestCommitTsData(ptr noundef %0, ptr noundef %1) #0 {
  %3 = alloca ptr, align 8
  %4 = alloca ptr, align 8
  %5 = alloca i32, align 4
  store ptr %0, ptr %3, align 8
  store ptr %1, ptr %4, align 8
  call void @llvm.lifetime.start.p0(i64 4, ptr %5) #7
  %6 = load ptr, ptr @MainLWLockArray, align 8
  %7 = getelementptr inbounds %union.LWLockPadded, ptr %6, i64 39
  %8 = call zeroext i1 @LWLockAcquire(ptr noundef %7, i32 noundef 1)
  %9 = load ptr, ptr @commitTsShared, align 8
  %10 = getelementptr inbounds nuw %struct.CommitTimestampShared, ptr %9, i32 0, i32 2
  %11 = load i8, ptr %10, align 8, !range !4, !noundef !5
  %12 = trunc i8 %11 to i1
  br i1 %12, label %14, label %13

13:                                               ; preds = %2
  call void @error_commit_ts_disabled()
  br label %14

14:                                               ; preds = %13, %2
  %15 = load ptr, ptr @commitTsShared, align 8
  %16 = getelementptr inbounds nuw %struct.CommitTimestampShared, ptr %15, i32 0, i32 0
  %17 = load i32, ptr %16, align 8
  store i32 %17, ptr %5, align 4
  %18 = load ptr, ptr %3, align 8
  %19 = icmp ne ptr %18, null
  br i1 %19, label %20, label %26

20:                                               ; preds = %14
  %21 = load ptr, ptr @commitTsShared, align 8
  %22 = getelementptr inbounds nuw %struct.CommitTimestampShared, ptr %21, i32 0, i32 1
  %23 = getelementptr inbounds nuw %struct.CommitTimestampEntry, ptr %22, i32 0, i32 0
  %24 = load i64, ptr %23, align 8
  %25 = load ptr, ptr %3, align 8
  store i64 %24, ptr %25, align 8
  br label %26

26:                                               ; preds = %20, %14
  %27 = load ptr, ptr %4, align 8
  %28 = icmp ne ptr %27, null
  br i1 %28, label %29, label %35

29:                                               ; preds = %26
  %30 = load ptr, ptr @commitTsShared, align 8
  %31 = getelementptr inbounds nuw %struct.CommitTimestampShared, ptr %30, i32 0, i32 1
  %32 = getelementptr inbounds nuw %struct.CommitTimestampEntry, ptr %31, i32 0, i32 1
  %33 = load i16, ptr %32, align 8
  %34 = load ptr, ptr %4, align 8
  store i16 %33, ptr %34, align 2
  br label %35

35:                                               ; preds = %29, %26
  %36 = load ptr, ptr @MainLWLockArray, align 8
  %37 = getelementptr inbounds %union.LWLockPadded, ptr %36, i64 39
  call void @LWLockRelease(ptr noundef %37)
  %38 = load i32, ptr %5, align 4
  call void @llvm.lifetime.end.p0(i64 4, ptr %5) #7
  ret i32 %38
}

; Function Attrs: nounwind uwtable
define dso_local i64 @pg_last_committed_xact(ptr noundef %0) #0 {
  %2 = alloca ptr, align 8
  %3 = alloca i32, align 4
  %4 = alloca i16, align 2
  %5 = alloca i64, align 8
  %6 = alloca [3 x i64], align 16
  %7 = alloca [3 x i8], align 1
  %8 = alloca ptr, align 8
  %9 = alloca ptr, align 8
  store ptr %0, ptr %2, align 8
  call void @llvm.lifetime.start.p0(i64 4, ptr %3) #7
  call void @llvm.lifetime.start.p0(i64 2, ptr %4) #7
  call void @llvm.lifetime.start.p0(i64 8, ptr %5) #7
  call void @llvm.lifetime.start.p0(i64 24, ptr %6) #7
  call void @llvm.lifetime.start.p0(i64 3, ptr %7) #7
  call void @llvm.lifetime.start.p0(i64 8, ptr %8) #7
  call void @llvm.lifetime.start.p0(i64 8, ptr %9) #7
  %10 = call i32 @GetLatestCommitTsData(ptr noundef %5, ptr noundef %4)
  store i32 %10, ptr %3, align 4
  %11 = load ptr, ptr %2, align 8
  %12 = call i32 @get_call_result_type(ptr noundef %11, ptr noundef null, ptr noundef %8)
  %13 = icmp ne i32 %12, 1
  br i1 %13, label %14, label %25

14:                                               ; preds = %1
  br label %15

15:                                               ; preds = %14
  br i1 true, label %16, label %18

16:                                               ; preds = %15
  %17 = call zeroext i1 @errstart_cold(i32 noundef 21, ptr noundef null) #8
  br i1 %17, label %20, label %22

18:                                               ; preds = %15
  %19 = call zeroext i1 @errstart(i32 noundef 21, ptr noundef null)
  br i1 %19, label %20, label %22

20:                                               ; preds = %18, %16
  %21 = call i32 (ptr, ...) @errmsg_internal(ptr noundef @.str.2)
  call void @errfinish(ptr noundef @.str.1, i32 noundef 434, ptr noundef @__func__.pg_last_committed_xact)
  br label %22

22:                                               ; preds = %20, %18, %16
  unreachable

23:                                               ; No predecessors!
  br label %24

24:                                               ; preds = %23
  br label %25

25:                                               ; preds = %24, %1
  %26 = load i32, ptr %3, align 4
  %27 = icmp uge i32 %26, 3
  br i1 %27, label %30, label %28

28:                                               ; preds = %25
  %29 = getelementptr inbounds [3 x i8], ptr %7, i64 0, i64 0
  call void @llvm.memset.p0.i64(ptr align 1 %29, i8 1, i64 3, i1 false)
  br label %44

30:                                               ; preds = %25
  %31 = load i32, ptr %3, align 4
  %32 = call i64 @TransactionIdGetDatum(i32 noundef %31)
  %33 = getelementptr inbounds [3 x i64], ptr %6, i64 0, i64 0
  store i64 %32, ptr %33, align 16
  %34 = getelementptr inbounds [3 x i8], ptr %7, i64 0, i64 0
  store i8 0, ptr %34, align 1
  %35 = load i64, ptr %5, align 8
  %36 = call i64 @TimestampTzGetDatum(i64 noundef %35)
  %37 = getelementptr inbounds [3 x i64], ptr %6, i64 0, i64 1
  store i64 %36, ptr %37, align 8
  %38 = getelementptr inbounds [3 x i8], ptr %7, i64 0, i64 1
  store i8 0, ptr %38, align 1
  %39 = load i16, ptr %4, align 2
  %40 = zext i16 %39 to i32
  %41 = call i64 @ObjectIdGetDatum(i32 noundef %40)
  %42 = getelementptr inbounds [3 x i64], ptr %6, i64 0, i64 2
  store i64 %41, ptr %42, align 16
  %43 = getelementptr inbounds [3 x i8], ptr %7, i64 0, i64 2
  store i8 0, ptr %43, align 1
  br label %44

44:                                               ; preds = %30, %28
  %45 = load ptr, ptr %8, align 8
  %46 = getelementptr inbounds [3 x i64], ptr %6, i64 0, i64 0
  %47 = getelementptr inbounds [3 x i8], ptr %7, i64 0, i64 0
  %48 = call ptr @heap_form_tuple(ptr noundef %45, ptr noundef %46, ptr noundef %47)
  store ptr %48, ptr %9, align 8
  %49 = load ptr, ptr %9, align 8
  %50 = call i64 @HeapTupleGetDatum(ptr noundef %49)
  call void @llvm.lifetime.end.p0(i64 8, ptr %9) #7
  call void @llvm.lifetime.end.p0(i64 8, ptr %8) #7
  call void @llvm.lifetime.end.p0(i64 3, ptr %7) #7
  call void @llvm.lifetime.end.p0(i64 24, ptr %6) #7
  call void @llvm.lifetime.end.p0(i64 8, ptr %5) #7
  call void @llvm.lifetime.end.p0(i64 2, ptr %4) #7
  call void @llvm.lifetime.end.p0(i64 4, ptr %3) #7
  ret i64 %50
}