; Function Attrs: nounwind uwtable
define dso_local i64 @pg_last_committed_xact(ptr noundef %0) local_unnamed_addr #0 {
  %2 = alloca [3 x i64], align 16
  %3 = alloca [3 x i8], align 1
  %4 = alloca ptr, align 8
  call void @llvm.lifetime.start.p0(i64 24, ptr nonnull %2) #9
  call void @llvm.lifetime.start.p0(i64 3, ptr nonnull %3) #9
  call void @llvm.lifetime.start.p0(i64 8, ptr nonnull %4) #9
  %5 = load ptr, ptr @MainLWLockArray, align 8
  %6 = getelementptr inbounds nuw i8, ptr %5, i64 4992
  %7 = tail call zeroext i1 @LWLockAcquire(ptr noundef nonnull %6, i32 noundef 1) #9
  %8 = load ptr, ptr @commitTsShared, align 8
  %9 = getelementptr inbounds nuw i8, ptr %8, i64 24
  %10 = load i8, ptr %9, align 8, !range !4, !noundef !5
  %11 = trunc nuw i8 %10 to i1
  br i1 %11, label %GetLatestCommitTsData.exit, label %12

12:                                               ; preds = %1
  tail call fastcc void @error_commit_ts_disabled()
  unreachable

GetLatestCommitTsData.exit:                       ; preds = %1
  %13 = load i32, ptr %8, align 8
  %14 = getelementptr inbounds nuw i8, ptr %8, i64 8
  %15 = load i64, ptr %14, align 8
  %16 = getelementptr inbounds nuw i8, ptr %8, i64 16
  %17 = load i16, ptr %16, align 8
  %18 = load ptr, ptr @MainLWLockArray, align 8
  %19 = getelementptr inbounds nuw i8, ptr %18, i64 4992
  tail call void @LWLockRelease(ptr noundef nonnull %19) #9
  %20 = call i32 @get_call_result_type(ptr noundef %0, ptr noundef null, ptr noundef nonnull %4) #9
  %.not = icmp eq i32 %20, 1
  br i1 %.not, label %24, label %21

21:                                               ; preds = %GetLatestCommitTsData.exit
  %22 = call zeroext i1 @errstart_cold(i32 noundef 21, ptr noundef null) #10
  call void @llvm.assume(i1 %22)
  %23 = call i32 (ptr, ...) @errmsg_internal(ptr noundef nonnull @.str.2) #9
  call void @errfinish(ptr noundef nonnull @.str.1, i32 noundef 434, ptr noundef nonnull @__func__.pg_last_committed_xact) #9
  unreachable

24:                                               ; preds = %GetLatestCommitTsData.exit
  %25 = icmp ugt i32 %13, 2
  br i1 %25, label %27, label %26

26:                                               ; preds = %24
  call void @llvm.memset.p0.i64(ptr noundef nonnull align 1 dereferenceable(3) %3, i8 1, i64 3, i1 false)
  br label %34

27:                                               ; preds = %24
  %28 = zext i32 %13 to i64
  store i64 %28, ptr %2, align 16
  store i8 0, ptr %3, align 1
  %29 = getelementptr inbounds nuw i8, ptr %2, i64 8
  store i64 %15, ptr %29, align 8
  %30 = getelementptr inbounds nuw i8, ptr %3, i64 1
  store i8 0, ptr %30, align 1
  %31 = zext i16 %17 to i64
  %32 = getelementptr inbounds nuw i8, ptr %2, i64 16
  store i64 %31, ptr %32, align 16
  %33 = getelementptr inbounds nuw i8, ptr %3, i64 2
  store i8 0, ptr %33, align 1
  br label %34

34:                                               ; preds = %27, %26
  %35 = load ptr, ptr %4, align 8
  %36 = call ptr @heap_form_tuple(ptr noundef %35, ptr noundef nonnull %2, ptr noundef nonnull %3) #9
  %37 = getelementptr i8, ptr %36, i64 16
  %.val = load ptr, ptr %37, align 8
  %38 = call i64 @HeapTupleHeaderGetDatum(ptr noundef %.val) #9
  call void @llvm.lifetime.end.p0(i64 8, ptr nonnull %4) #9
  call void @llvm.lifetime.end.p0(i64 3, ptr nonnull %3) #9
  call void @llvm.lifetime.end.p0(i64 24, ptr nonnull %2) #9
  ret i64 %38
}